#include <math.h>
#include <stdio.h>
#include <stdlib.h>
#include <string.h>

int main()
{
	int num,i,j,k,flag;
	char a[81];
	scanf("%d",&num);
	getchar();
	for(i=0;i<num;i++)
	{
		for(j=0;j<81;j++)
		{
			scanf("%c",&a[j]);
			if(a[j]=='\n')
			{
				break;
			}
		}
		
		if( (a[0]=='_') || (a[0]>='a' && a[0]<='z')
						|| (a[0]>='A' && a[0]<='Z') )
		{
			flag=1;
			for(k=1;k<j;k++)
			{
				if(    (a[k]=='_')
					|| (a[k]>='0' && a[k]<='9') 
					|| (a[k]>='a' && a[k]<='z')
					|| (a[k]>='A' && a[k]<='Z') )
					flag*=1;
				else
				{
					flag*=0;
					break;
				}
			}
			if(flag==1) printf("1\n");
			else printf("0\n");
		}
		else
		{
			printf("0\n");
		}
	}
	return 0;
}