; ModuleID = 'source-C-CXX/57/94.c'
source_filename = "source-C-CXX/57/94.c"
target datalayout = "e-m:e-p270:32:32-p271:32:32-p272:64:64-i64:64-f80:128-n8:16:32:64-S128"
target triple = "x86_64-pc-linux-gnu"

%struct._IO_FILE = type { i32, i8*, i8*, i8*, i8*, i8*, i8*, i8*, i8*, i8*, i8*, i8*, %struct._IO_marker*, %struct._IO_FILE*, i32, i32, i64, i16, i8, [1 x i8], i8*, i64, %struct._IO_codecvt*, %struct._IO_wide_data*, %struct._IO_FILE*, i8*, i64, i32, [20 x i8] }
%struct._IO_marker = type opaque
%struct._IO_codecvt = type opaque
%struct._IO_wide_data = type opaque

@.str = private unnamed_addr constant [3 x i8] c"%d\00", align 1
@.str.1 = private unnamed_addr constant [3 x i8] c"%c\00", align 1
@stdin = external local_unnamed_addr global %struct._IO_FILE*, align 8
@str.4 = private unnamed_addr constant [2 x i8] c"0\00", align 1
@str.5 = private unnamed_addr constant [2 x i8] c"1\00", align 1

; Function Attrs: nofree nounwind sspstrong uwtable
define dso_local i32 @main() local_unnamed_addr #0 {
  %1 = alloca i32, align 4
  %2 = alloca [81 x i8], align 16
  %3 = bitcast i32* %1 to i8*
  call void @llvm.lifetime.start.p0i8(i64 4, i8* nonnull %3) #4
  %4 = getelementptr inbounds [81 x i8], [81 x i8]* %2, i64 0, i64 0
  call void @llvm.lifetime.start.p0i8(i64 81, i8* nonnull %4) #4
  %5 = call i32 (i8*, ...) @__isoc99_scanf(i8* getelementptr inbounds ([3 x i8], [3 x i8]* @.str, i64 0, i64 0), i32* nonnull %1)
  %6 = load %struct._IO_FILE*, %struct._IO_FILE** @stdin, align 8, !tbaa !5
  %7 = call i32 @getc(%struct._IO_FILE* %6) #4
  %8 = load i32, i32* %1, align 4, !tbaa !9
  %9 = icmp sgt i32 %8, 0
  br i1 %9, label %10, label %58

10:                                               ; preds = %0, %52
  %11 = phi i32 [ %55, %52 ], [ 0, %0 ]
  br label %12

12:                                               ; preds = %10, %18
  %13 = phi i64 [ 0, %10 ], [ %19, %18 ]
  %14 = getelementptr inbounds [81 x i8], [81 x i8]* %2, i64 0, i64 %13
  %15 = call i32 (i8*, ...) @__isoc99_scanf(i8* getelementptr inbounds ([3 x i8], [3 x i8]* @.str.1, i64 0, i64 0), i8* nonnull %14)
  %16 = load i8, i8* %14, align 1, !tbaa !11
  %17 = icmp eq i8 %16, 10
  br i1 %17, label %21, label %18

18:                                               ; preds = %12
  %19 = add nuw nsw i64 %13, 1
  %20 = icmp eq i64 %19, 81
  br i1 %20, label %23, label %12, !llvm.loop !12

21:                                               ; preds = %12
  %22 = trunc i64 %13 to i32
  br label %23

23:                                               ; preds = %18, %21
  %24 = phi i32 [ %22, %21 ], [ 81, %18 ]
  %25 = load i8, i8* %4, align 16, !tbaa !11
  %26 = icmp eq i8 %25, 95
  %27 = and i8 %25, -33
  %28 = add i8 %27, -65
  %29 = icmp ult i8 %28, 26
  %30 = or i1 %29, %26
  br i1 %30, label %31, label %52

31:                                               ; preds = %23
  %32 = icmp ugt i32 %24, 1
  br i1 %32, label %33, label %52

33:                                               ; preds = %31
  %34 = zext i32 %24 to i64
  br label %37

35:                                               ; preds = %37
  %36 = icmp eq i64 %51, %34
  br i1 %36, label %52, label %37, !llvm.loop !14

37:                                               ; preds = %33, %35
  %38 = phi i64 [ 1, %33 ], [ %51, %35 ]
  %39 = getelementptr inbounds [81 x i8], [81 x i8]* %2, i64 0, i64 %38
  %40 = load i8, i8* %39, align 1, !tbaa !11
  %41 = icmp eq i8 %40, 95
  %42 = add i8 %40, -48
  %43 = icmp ult i8 %42, 10
  %44 = or i1 %41, %43
  %45 = add i8 %40, -97
  %46 = icmp ult i8 %45, 26
  %47 = or i1 %46, %44
  %48 = add i8 %40, -65
  %49 = icmp ult i8 %48, 26
  %50 = select i1 %47, i1 true, i1 %49
  %51 = add nuw nsw i64 %38, 1
  br i1 %50, label %35, label %52

52:                                               ; preds = %37, %35, %23, %31
  %53 = phi i8* [ getelementptr inbounds ([2 x i8], [2 x i8]* @str.5, i64 0, i64 0), %31 ], [ getelementptr inbounds ([2 x i8], [2 x i8]* @str.4, i64 0, i64 0), %23 ], [ getelementptr inbounds ([2 x i8], [2 x i8]* @str.5, i64 0, i64 0), %35 ], [ getelementptr inbounds ([2 x i8], [2 x i8]* @str.4, i64 0, i64 0), %37 ]
  %54 = call i32 @puts(i8* nonnull dereferenceable(1) %53)
  %55 = add nuw nsw i32 %11, 1
  %56 = load i32, i32* %1, align 4, !tbaa !9
  %57 = icmp slt i32 %55, %56
  br i1 %57, label %10, label %58, !llvm.loop !15

58:                                               ; preds = %52, %0
  call void @llvm.lifetime.end.p0i8(i64 81, i8* nonnull %4) #4
  call void @llvm.lifetime.end.p0i8(i64 4, i8* nonnull %3) #4
  ret i32 0
}

; Function Attrs: argmemonly mustprogress nofree nosync nounwind willreturn
declare void @llvm.lifetime.start.p0i8(i64 immarg, i8* nocapture) #1

; Function Attrs: nofree nounwind
declare noundef i32 @__isoc99_scanf(i8* nocapture noundef readonly, ...) local_unnamed_addr #2

; Function Attrs: argmemonly mustprogress nofree nosync nounwind willreturn
declare void @llvm.lifetime.end.p0i8(i64 immarg, i8* nocapture) #1

; Function Attrs: nofree nounwind
declare noundef i32 @getc(%struct._IO_FILE* nocapture noundef) local_unnamed_addr #2

; Function Attrs: nofree nounwind
declare noundef i32 @puts(i8* nocapture noundef readonly) local_unnamed_addr #3


!llvm.module.flags = !{!0, !1, !2, !3}
!llvm.ident = !{!4}

!0 = !{i32 1, !"wchar_size", i32 4}
!1 = !{i32 7, !"PIC Level", i32 2}
!2 = !{i32 7, !"PIE Level", i32 2}
!3 = !{i32 7, !"uwtable", i32 1}
!4 = !{!"clang version 13.0.0"}
!5 = !{!6, !6, i64 0}
!6 = !{!"any pointer", !7, i64 0}
!7 = !{!"omnipotent char", !8, i64 0}
!8 = !{!"Simple C/C++ TBAA"}
!9 = !{!10, !10, i64 0}
!10 = !{!"int", !7, i64 0}
!11 = !{!7, !7, i64 0}
!12 = distinct !{!12, !13}
!13 = !{!"llvm.loop.mustprogress"}
!14 = distinct !{!14, !13}
!15 = distinct !{!15, !13}
